	.file	"Application.cpp"
# GNU C++14 (Debian 12.2.0-3) version 12.2.0 (x86_64-linux-gnu)
#	compiled by GNU C version 12.2.0, GMP version 6.2.1, MPFR version 4.1.0, MPC version 1.2.1, isl version isl-0.25-GMP

# GGC heuristics: --param ggc-min-expand=100 --param ggc-min-heapsize=131072
# options passed: -mtune=generic -march=x86-64 -g -std=c++14 -fasynchronous-unwind-tables
	.text
.Ltext0:
	.file 0 "/home/xunililak/Code/Projects/11-PhysUnits" "Application.cpp"
	.section	.text._ZNKSt9type_info4nameEv,"axG",@progbits,_ZNKSt9type_info4nameEv,comdat
	.align 2
	.weak	_ZNKSt9type_info4nameEv
	.type	_ZNKSt9type_info4nameEv, @function
_ZNKSt9type_info4nameEv:
.LFB20:
	.file 1 "/usr/include/c++/12/typeinfo"
	.loc 1 103 17
	.cfi_startproc
	pushq	%rbp	#
	.cfi_def_cfa_offset 16
	.cfi_offset 6, -16
	movq	%rsp, %rbp	#,
	.cfi_def_cfa_register 6
	movq	%rdi, -8(%rbp)	# this, this
# /usr/include/c++/12/typeinfo:104:     { return __name[0] == '*' ? __name + 1 : __name; }
	.loc 1 104 14
	movq	-8(%rbp), %rax	# this, tmp87
	movq	8(%rax), %rax	# this_6(D)->__name, _1
# /usr/include/c++/12/typeinfo:104:     { return __name[0] == '*' ? __name + 1 : __name; }
	.loc 1 104 22
	movzbl	(%rax), %eax	# *_1, _2
# /usr/include/c++/12/typeinfo:104:     { return __name[0] == '*' ? __name + 1 : __name; }
	.loc 1 104 31
	cmpb	$42, %al	#, _2
	jne	.L2	#,
# /usr/include/c++/12/typeinfo:104:     { return __name[0] == '*' ? __name + 1 : __name; }
	.loc 1 104 33 discriminator 1
	movq	-8(%rbp), %rax	# this, tmp88
	movq	8(%rax), %rax	# this_6(D)->__name, _3
# /usr/include/c++/12/typeinfo:104:     { return __name[0] == '*' ? __name + 1 : __name; }
	.loc 1 104 31 discriminator 1
	addq	$1, %rax	#, iftmp.0_4
# /usr/include/c++/12/typeinfo:104:     { return __name[0] == '*' ? __name + 1 : __name; }
	.loc 1 104 46 discriminator 1
	jmp	.L4	#
.L2:
# /usr/include/c++/12/typeinfo:104:     { return __name[0] == '*' ? __name + 1 : __name; }
	.loc 1 104 31 discriminator 2
	movq	-8(%rbp), %rax	# this, tmp89
	movq	8(%rax), %rax	# this_6(D)->__name, iftmp.0_4
.L4:
# /usr/include/c++/12/typeinfo:104:     { return __name[0] == '*' ? __name + 1 : __name; }
	.loc 1 104 54 discriminator 5
	popq	%rbp	#
	.cfi_def_cfa 7, 8
	ret	
	.cfi_endproc
.LFE20:
	.size	_ZNKSt9type_info4nameEv, .-_ZNKSt9type_info4nameEv
	.section	.rodata
	.type	_ZStL19piecewise_construct, @object
	.size	_ZStL19piecewise_construct, 1
_ZStL19piecewise_construct:
	.zero	1
	.local	_ZStL8__ioinit
	.comm	_ZStL8__ioinit,1,1
	.type	_ZN7physics4unitL4noneE, @object
	.size	_ZN7physics4unitL4noneE, 1
_ZN7physics4unitL4noneE:
	.zero	1
	.type	_ZN7physics4unitL6radianE, @object
	.size	_ZN7physics4unitL6radianE, 1
_ZN7physics4unitL6radianE:
	.zero	1
	.type	_ZN7physics4unitL6degreeE, @object
	.size	_ZN7physics4unitL6degreeE, 1
_ZN7physics4unitL6degreeE:
	.zero	1
	.type	_ZN7physics4unitL9steradianE, @object
	.size	_ZN7physics4unitL9steradianE, 1
_ZN7physics4unitL9steradianE:
	.zero	1
	.type	_ZN7physics4unitL5hertzE, @object
	.size	_ZN7physics4unitL5hertzE, 1
_ZN7physics4unitL5hertzE:
	.zero	1
	.type	_ZN7physics4unitL6newtonE, @object
	.size	_ZN7physics4unitL6newtonE, 1
_ZN7physics4unitL6newtonE:
	.zero	1
	.type	_ZN7physics4unitL6pascalE, @object
	.size	_ZN7physics4unitL6pascalE, 1
_ZN7physics4unitL6pascalE:
	.zero	1
	.type	_ZN7physics4unitL5jouleE, @object
	.size	_ZN7physics4unitL5jouleE, 1
_ZN7physics4unitL5jouleE:
	.zero	1
	.type	_ZN7physics4unitL4wattE, @object
	.size	_ZN7physics4unitL4wattE, 1
_ZN7physics4unitL4wattE:
	.zero	1
	.type	_ZN7physics4unitL7coulombE, @object
	.size	_ZN7physics4unitL7coulombE, 1
_ZN7physics4unitL7coulombE:
	.zero	1
	.type	_ZN7physics4unitL4voltE, @object
	.size	_ZN7physics4unitL4voltE, 1
_ZN7physics4unitL4voltE:
	.zero	1
	.type	_ZN7physics4unitL5faradE, @object
	.size	_ZN7physics4unitL5faradE, 1
_ZN7physics4unitL5faradE:
	.zero	1
	.type	_ZN7physics4unitL3ohmE, @object
	.size	_ZN7physics4unitL3ohmE, 1
_ZN7physics4unitL3ohmE:
	.zero	1
	.type	_ZN7physics4unitL7siemensE, @object
	.size	_ZN7physics4unitL7siemensE, 1
_ZN7physics4unitL7siemensE:
	.zero	1
	.type	_ZN7physics4unitL5weberE, @object
	.size	_ZN7physics4unitL5weberE, 1
_ZN7physics4unitL5weberE:
	.zero	1
	.type	_ZN7physics4unitL5teslaE, @object
	.size	_ZN7physics4unitL5teslaE, 1
_ZN7physics4unitL5teslaE:
	.zero	1
	.type	_ZN7physics4unitL5henryE, @object
	.size	_ZN7physics4unitL5henryE, 1
_ZN7physics4unitL5henryE:
	.zero	1
	.type	_ZN7physics4unitL7celciusE, @object
	.size	_ZN7physics4unitL7celciusE, 1
_ZN7physics4unitL7celciusE:
	.zero	1
	.type	_ZN7physics4unitL9becquerelE, @object
	.size	_ZN7physics4unitL9becquerelE, 1
_ZN7physics4unitL9becquerelE:
	.zero	1
	.type	_ZN7physics4unitL4grayE, @object
	.size	_ZN7physics4unitL4grayE, 1
_ZN7physics4unitL4grayE:
	.zero	1
	.type	_ZN7physics4unitL7sievertE, @object
	.size	_ZN7physics4unitL7sievertE, 1
_ZN7physics4unitL7sievertE:
	.zero	1
	.type	_ZN7physics4unitL5katalE, @object
	.size	_ZN7physics4unitL5katalE, 1
_ZN7physics4unitL5katalE:
	.zero	1
	.type	_ZN7physics4unitL5lumenE, @object
	.size	_ZN7physics4unitL5lumenE, 1
_ZN7physics4unitL5lumenE:
	.zero	1
	.type	_ZN7physics4unitL3luxE, @object
	.size	_ZN7physics4unitL3luxE, 1
_ZN7physics4unitL3luxE:
	.zero	1
	.text
	.globl	_Zli2_se
	.type	_Zli2_se, @function
_Zli2_se:
.LFB2259:
	.file 2 "include/Quantity/QuantityLiterals.hpp"
	.loc 2 11 1
	.cfi_startproc
	pushq	%rbp	#
	.cfi_def_cfa_offset 16
	.cfi_offset 6, -16
	movq	%rsp, %rbp	#,
	.cfi_def_cfa_register 6
	subq	$16, %rsp	#,
# include/Quantity/QuantityLiterals.hpp:12:     return physics::quantity::time{val};
	.loc 2 12 31
	leaq	-16(%rbp), %rax	#, tmp84
	pushq	24(%rbp)	# val
	pushq	16(%rbp)	# val
	movq	%rax, %rdi	# tmp84,
	call	_ZN7physics8quantity7details14_quantity_baseIKNS_4unit7details10_dim_spaceILi1ELi0ELi0ELi0ELi0ELi0ELi0EEEEC1Ee	#
	addq	$16, %rsp	#,
# include/Quantity/QuantityLiterals.hpp:12:     return physics::quantity::time{val};
	.loc 2 12 39
	fldt	-16(%rbp)	# D.53792
# include/Quantity/QuantityLiterals.hpp:13: }
	.loc 2 13 1
	leave	
	.cfi_def_cfa 7, 8
	ret	
	.cfi_endproc
.LFE2259:
	.size	_Zli2_se, .-_Zli2_se
	.globl	_Zli2_me
	.type	_Zli2_me, @function
_Zli2_me:
.LFB2260:
	.loc 2 16 1
	.cfi_startproc
	pushq	%rbp	#
	.cfi_def_cfa_offset 16
	.cfi_offset 6, -16
	movq	%rsp, %rbp	#,
	.cfi_def_cfa_register 6
	subq	$16, %rsp	#,
# include/Quantity/QuantityLiterals.hpp:17:     return physics::quantity::length{val};
	.loc 2 17 31
	leaq	-16(%rbp), %rax	#, tmp84
	pushq	24(%rbp)	# val
	pushq	16(%rbp)	# val
	movq	%rax, %rdi	# tmp84,
	call	_ZN7physics8quantity7details14_quantity_baseIKNS_4unit7details10_dim_spaceILi0ELi1ELi0ELi0ELi0ELi0ELi0EEEEC1Ee	#
	addq	$16, %rsp	#,
# include/Quantity/QuantityLiterals.hpp:17:     return physics::quantity::length{val};
	.loc 2 17 41
	fldt	-16(%rbp)	# D.53872
# include/Quantity/QuantityLiterals.hpp:18: }
	.loc 2 18 1
	leave	
	.cfi_def_cfa 7, 8
	ret	
	.cfi_endproc
.LFE2260:
	.size	_Zli2_me, .-_Zli2_me
	.globl	_Zli3_kge
	.type	_Zli3_kge, @function
_Zli3_kge:
.LFB2261:
	.loc 2 21 1
	.cfi_startproc
	pushq	%rbp	#
	.cfi_def_cfa_offset 16
	.cfi_offset 6, -16
	movq	%rsp, %rbp	#,
	.cfi_def_cfa_register 6
	subq	$16, %rsp	#,
# include/Quantity/QuantityLiterals.hpp:22:     return physics::quantity::mass{val};
	.loc 2 22 31
	leaq	-16(%rbp), %rax	#, tmp84
	pushq	24(%rbp)	# val
	pushq	16(%rbp)	# val
	movq	%rax, %rdi	# tmp84,
	call	_ZN7physics8quantity7details14_quantity_baseIKNS_4unit7details10_dim_spaceILi0ELi0ELi1ELi0ELi0ELi0ELi0EEEEC1Ee	#
	addq	$16, %rsp	#,
# include/Quantity/QuantityLiterals.hpp:22:     return physics::quantity::mass{val};
	.loc 2 22 39
	fldt	-16(%rbp)	# D.53952
# include/Quantity/QuantityLiterals.hpp:23: }
	.loc 2 23 1
	leave	
	.cfi_def_cfa 7, 8
	ret	
	.cfi_endproc
.LFE2261:
	.size	_Zli3_kge, .-_Zli3_kge
	.globl	_Zli2_Ae
	.type	_Zli2_Ae, @function
_Zli2_Ae:
.LFB2262:
	.loc 2 26 1
	.cfi_startproc
	pushq	%rbp	#
	.cfi_def_cfa_offset 16
	.cfi_offset 6, -16
	movq	%rsp, %rbp	#,
	.cfi_def_cfa_register 6
	subq	$16, %rsp	#,
# include/Quantity/QuantityLiterals.hpp:27:     return physics::quantity::e_current{val};
	.loc 2 27 31
	leaq	-16(%rbp), %rax	#, tmp84
	pushq	24(%rbp)	# val
	pushq	16(%rbp)	# val
	movq	%rax, %rdi	# tmp84,
	call	_ZN7physics8quantity7details14_quantity_baseIKNS_4unit7details10_dim_spaceILi0ELi0ELi0ELi1ELi0ELi0ELi0EEEEC1Ee	#
	addq	$16, %rsp	#,
# include/Quantity/QuantityLiterals.hpp:27:     return physics::quantity::e_current{val};
	.loc 2 27 44
	fldt	-16(%rbp)	# D.54032
# include/Quantity/QuantityLiterals.hpp:28: }
	.loc 2 28 1
	leave	
	.cfi_def_cfa 7, 8
	ret	
	.cfi_endproc
.LFE2262:
	.size	_Zli2_Ae, .-_Zli2_Ae
	.globl	_Zli2_Ke
	.type	_Zli2_Ke, @function
_Zli2_Ke:
.LFB2263:
	.loc 2 31 1
	.cfi_startproc
	pushq	%rbp	#
	.cfi_def_cfa_offset 16
	.cfi_offset 6, -16
	movq	%rsp, %rbp	#,
	.cfi_def_cfa_register 6
	subq	$16, %rsp	#,
# include/Quantity/QuantityLiterals.hpp:32:     return physics::quantity::temperature{val};
	.loc 2 32 31
	leaq	-16(%rbp), %rax	#, tmp84
	pushq	24(%rbp)	# val
	pushq	16(%rbp)	# val
	movq	%rax, %rdi	# tmp84,
	call	_ZN7physics8quantity7details14_quantity_baseIKNS_4unit7details10_dim_spaceILi0ELi0ELi0ELi0ELi1ELi0ELi0EEEEC1Ee	#
	addq	$16, %rsp	#,
# include/Quantity/QuantityLiterals.hpp:32:     return physics::quantity::temperature{val};
	.loc 2 32 46
	fldt	-16(%rbp)	# D.54112
# include/Quantity/QuantityLiterals.hpp:33: }
	.loc 2 33 1
	leave	
	.cfi_def_cfa 7, 8
	ret	
	.cfi_endproc
.LFE2263:
	.size	_Zli2_Ke, .-_Zli2_Ke
	.globl	_Zli4_mole
	.type	_Zli4_mole, @function
_Zli4_mole:
.LFB2264:
	.loc 2 36 1
	.cfi_startproc
	pushq	%rbp	#
	.cfi_def_cfa_offset 16
	.cfi_offset 6, -16
	movq	%rsp, %rbp	#,
	.cfi_def_cfa_register 6
	subq	$16, %rsp	#,
# include/Quantity/QuantityLiterals.hpp:37:     return physics::quantity::a_substance{val};
	.loc 2 37 31
	leaq	-16(%rbp), %rax	#, tmp84
	pushq	24(%rbp)	# val
	pushq	16(%rbp)	# val
	movq	%rax, %rdi	# tmp84,
	call	_ZN7physics8quantity7details14_quantity_baseIKNS_4unit7details10_dim_spaceILi0ELi0ELi0ELi0ELi0ELi1ELi0EEEEC1Ee	#
	addq	$16, %rsp	#,
# include/Quantity/QuantityLiterals.hpp:37:     return physics::quantity::a_substance{val};
	.loc 2 37 46
	fldt	-16(%rbp)	# D.54192
# include/Quantity/QuantityLiterals.hpp:38: }
	.loc 2 38 1
	leave	
	.cfi_def_cfa 7, 8
	ret	
	.cfi_endproc
.LFE2264:
	.size	_Zli4_mole, .-_Zli4_mole
	.globl	_Zli3_cde
	.type	_Zli3_cde, @function
_Zli3_cde:
.LFB2265:
	.loc 2 41 1
	.cfi_startproc
	pushq	%rbp	#
	.cfi_def_cfa_offset 16
	.cfi_offset 6, -16
	movq	%rsp, %rbp	#,
	.cfi_def_cfa_register 6
	subq	$16, %rsp	#,
# include/Quantity/QuantityLiterals.hpp:42:     return physics::quantity::l_intensity{val};
	.loc 2 42 31
	leaq	-16(%rbp), %rax	#, tmp84
	pushq	24(%rbp)	# val
	pushq	16(%rbp)	# val
	movq	%rax, %rdi	# tmp84,
	call	_ZN7physics8quantity7details14_quantity_baseIKNS_4unit7details10_dim_spaceILi0ELi0ELi0ELi0ELi0ELi0ELi1EEEEC1Ee	#
	addq	$16, %rsp	#,
# include/Quantity/QuantityLiterals.hpp:42:     return physics::quantity::l_intensity{val};
	.loc 2 42 46
	fldt	-16(%rbp)	# D.54272
# include/Quantity/QuantityLiterals.hpp:43: }
	.loc 2 43 1
	leave	
	.cfi_def_cfa 7, 8
	ret	
	.cfi_endproc
.LFE2265:
	.size	_Zli3_cde, .-_Zli3_cde
	.globl	_Zli2_Ne
	.type	_Zli2_Ne, @function
_Zli2_Ne:
.LFB2266:
	.loc 2 48 1
	.cfi_startproc
	pushq	%rbp	#
	.cfi_def_cfa_offset 16
	.cfi_offset 6, -16
	movq	%rsp, %rbp	#,
	.cfi_def_cfa_register 6
	subq	$16, %rsp	#,
# include/Quantity/QuantityLiterals.hpp:49:     return physics::quantity::force{val};
	.loc 2 49 31
	leaq	-16(%rbp), %rax	#, tmp84
	pushq	24(%rbp)	# val
	pushq	16(%rbp)	# val
	movq	%rax, %rdi	# tmp84,
	call	_ZN7physics8quantity7details14_quantity_baseIKNS_4unit7details10_dim_spaceILin2ELi1ELi1ELi0ELi0ELi0ELi0EEEEC1Ee	#
	addq	$16, %rsp	#,
# include/Quantity/QuantityLiterals.hpp:49:     return physics::quantity::force{val};
	.loc 2 49 40
	fldt	-16(%rbp)	# D.54352
# include/Quantity/QuantityLiterals.hpp:50: }
	.loc 2 50 1
	leave	
	.cfi_def_cfa 7, 8
	ret	
	.cfi_endproc
.LFE2266:
	.size	_Zli2_Ne, .-_Zli2_Ne
	.globl	_Zli2_Je
	.type	_Zli2_Je, @function
_Zli2_Je:
.LFB2267:
	.loc 2 53 1
	.cfi_startproc
	pushq	%rbp	#
	.cfi_def_cfa_offset 16
	.cfi_offset 6, -16
	movq	%rsp, %rbp	#,
	.cfi_def_cfa_register 6
	subq	$16, %rsp	#,
# include/Quantity/QuantityLiterals.hpp:54:     return physics::quantity::energy{val};
	.loc 2 54 31
	leaq	-16(%rbp), %rax	#, tmp84
	pushq	24(%rbp)	# val
	pushq	16(%rbp)	# val
	movq	%rax, %rdi	# tmp84,
	call	_ZN7physics8quantity7details14_quantity_baseIKNS_4unit7details10_dim_spaceILin2ELi2ELi1ELi0ELi0ELi0ELi0EEEEC1Ee	#
	addq	$16, %rsp	#,
# include/Quantity/QuantityLiterals.hpp:54:     return physics::quantity::energy{val};
	.loc 2 54 41
	fldt	-16(%rbp)	# D.54432
# include/Quantity/QuantityLiterals.hpp:55: }
	.loc 2 55 1
	leave	
	.cfi_def_cfa 7, 8
	ret	
	.cfi_endproc
.LFE2267:
	.size	_Zli2_Je, .-_Zli2_Je
	.globl	main
	.type	main, @function
main:
.LFB2268:
	.file 3 "Application.cpp"
	.loc 3 11 1
	.cfi_startproc
	pushq	%rbp	#
	.cfi_def_cfa_offset 16
	.cfi_offset 6, -16
	movq	%rsp, %rbp	#,
	.cfi_def_cfa_register 6
	subq	$32, %rsp	#,
	movl	%edi, -20(%rbp)	# argc, argc
	movq	%rsi, -32(%rbp)	# argv, argv
# Application.cpp:13:     auto test1 = 10.0_J;
	.loc 3 13 18
	fldt	.LC1(%rip)	#
	leaq	-16(%rsp), %rsp	#,
	fstpt	(%rsp)	#
	call	_Zli2_Je	#
	addq	$16, %rsp	#,
	fstpt	-16(%rbp)	# test1
# Application.cpp:15:     std::cout << typeid(test1).name() << '\n';
	.loc 3 15 42
	leaq	_ZTIN7physics8quantity7details14_quantity_baseIKNS_4unit7details10_dim_spaceILin2ELi2ELi1ELi0ELi0ELi0ELi0EEEEE(%rip), %rax	#, tmp91
	movq	%rax, %rdi	# tmp91,
	call	_ZNKSt9type_info4nameEv	#
	movq	%rax, %rsi	# _1,
	leaq	_ZSt4cout(%rip), %rax	#, tmp92
	movq	%rax, %rdi	# tmp92,
	call	_ZStlsISt11char_traitsIcEERSt13basic_ostreamIcT_ES5_PKc@PLT	#
	movl	$10, %esi	#,
	movq	%rax, %rdi	# _2,
	call	_ZStlsISt11char_traitsIcEERSt13basic_ostreamIcT_ES5_c@PLT	#
# Application.cpp:16:     std::cout << test1.value << '\n';
	.loc 3 16 24
	fldt	-16(%rbp)	# test1.value
	leaq	-16(%rsp), %rsp	#,
	fstpt	(%rsp)	#
	leaq	_ZSt4cout(%rip), %rax	#, tmp93
	movq	%rax, %rdi	# tmp93,
	call	_ZNSolsEe@PLT	#
	addq	$16, %rsp	#,
# Application.cpp:16:     std::cout << test1.value << '\n';
	.loc 3 16 33
	movl	$10, %esi	#,
	movq	%rax, %rdi	# _4,
	call	_ZStlsISt11char_traitsIcEERSt13basic_ostreamIcT_ES5_c@PLT	#
# Application.cpp:18:     return 0;
	.loc 3 18 12
	movl	$0, %eax	#, _15
# Application.cpp:19: }
	.loc 3 19 1
	leave	
	.cfi_def_cfa 7, 8
	ret	
	.cfi_endproc
.LFE2268:
	.size	main, .-main
	.section	.text._ZN7physics8quantity7details14_quantity_baseIKNS_4unit7details10_dim_spaceILi1ELi0ELi0ELi0ELi0ELi0ELi0EEEEC2Ee,"axG",@progbits,_ZN7physics8quantity7details14_quantity_baseIKNS_4unit7details10_dim_spaceILi1ELi0ELi0ELi0ELi0ELi0ELi0EEEEC5Ee,comdat
	.align 2
	.weak	_ZN7physics8quantity7details14_quantity_baseIKNS_4unit7details10_dim_spaceILi1ELi0ELi0ELi0ELi0ELi0ELi0EEEEC2Ee
	.type	_ZN7physics8quantity7details14_quantity_baseIKNS_4unit7details10_dim_spaceILi1ELi0ELi0ELi0ELi0ELi0ELi0EEEEC2Ee, @function
_ZN7physics8quantity7details14_quantity_baseIKNS_4unit7details10_dim_spaceILi1ELi0ELi0ELi0ELi0ELi0ELi0EEEEC2Ee:
.LFB2517:
	.file 4 "include/Quantity/QuantityBase.hpp"
	.loc 4 25 22
	.cfi_startproc
	pushq	%rbp	#
	.cfi_def_cfa_offset 16
	.cfi_offset 6, -16
	movq	%rsp, %rbp	#,
	.cfi_def_cfa_register 6
	movq	%rdi, -8(%rbp)	# this, this
.LBB2:
# include/Quantity/QuantityBase.hpp:25:             explicit _quantity_base(long double val) : value{val} {}
	.loc 4 25 56
	movq	-8(%rbp), %rax	# this, tmp82
	fldt	16(%rbp)	# val
	fstpt	(%rax)	# this_2(D)->value
.LBE2:
# include/Quantity/QuantityBase.hpp:25:             explicit _quantity_base(long double val) : value{val} {}
	.loc 4 25 68
	nop	
	popq	%rbp	#
	.cfi_def_cfa 7, 8
	ret	
	.cfi_endproc
.LFE2517:
	.size	_ZN7physics8quantity7details14_quantity_baseIKNS_4unit7details10_dim_spaceILi1ELi0ELi0ELi0ELi0ELi0ELi0EEEEC2Ee, .-_ZN7physics8quantity7details14_quantity_baseIKNS_4unit7details10_dim_spaceILi1ELi0ELi0ELi0ELi0ELi0ELi0EEEEC2Ee
	.weak	_ZN7physics8quantity7details14_quantity_baseIKNS_4unit7details10_dim_spaceILi1ELi0ELi0ELi0ELi0ELi0ELi0EEEEC1Ee
	.set	_ZN7physics8quantity7details14_quantity_baseIKNS_4unit7details10_dim_spaceILi1ELi0ELi0ELi0ELi0ELi0ELi0EEEEC1Ee,_ZN7physics8quantity7details14_quantity_baseIKNS_4unit7details10_dim_spaceILi1ELi0ELi0ELi0ELi0ELi0ELi0EEEEC2Ee
	.section	.text._ZN7physics8quantity7details14_quantity_baseIKNS_4unit7details10_dim_spaceILi0ELi1ELi0ELi0ELi0ELi0ELi0EEEEC2Ee,"axG",@progbits,_ZN7physics8quantity7details14_quantity_baseIKNS_4unit7details10_dim_spaceILi0ELi1ELi0ELi0ELi0ELi0ELi0EEEEC5Ee,comdat
	.align 2
	.weak	_ZN7physics8quantity7details14_quantity_baseIKNS_4unit7details10_dim_spaceILi0ELi1ELi0ELi0ELi0ELi0ELi0EEEEC2Ee
	.type	_ZN7physics8quantity7details14_quantity_baseIKNS_4unit7details10_dim_spaceILi0ELi1ELi0ELi0ELi0ELi0ELi0EEEEC2Ee, @function
_ZN7physics8quantity7details14_quantity_baseIKNS_4unit7details10_dim_spaceILi0ELi1ELi0ELi0ELi0ELi0ELi0EEEEC2Ee:
.LFB2520:
	.loc 4 25 22
	.cfi_startproc
	pushq	%rbp	#
	.cfi_def_cfa_offset 16
	.cfi_offset 6, -16
	movq	%rsp, %rbp	#,
	.cfi_def_cfa_register 6
	movq	%rdi, -8(%rbp)	# this, this
.LBB3:
# include/Quantity/QuantityBase.hpp:25:             explicit _quantity_base(long double val) : value{val} {}
	.loc 4 25 56
	movq	-8(%rbp), %rax	# this, tmp82
	fldt	16(%rbp)	# val
	fstpt	(%rax)	# this_2(D)->value
.LBE3:
# include/Quantity/QuantityBase.hpp:25:             explicit _quantity_base(long double val) : value{val} {}
	.loc 4 25 68
	nop	
	popq	%rbp	#
	.cfi_def_cfa 7, 8
	ret	
	.cfi_endproc
.LFE2520:
	.size	_ZN7physics8quantity7details14_quantity_baseIKNS_4unit7details10_dim_spaceILi0ELi1ELi0ELi0ELi0ELi0ELi0EEEEC2Ee, .-_ZN7physics8quantity7details14_quantity_baseIKNS_4unit7details10_dim_spaceILi0ELi1ELi0ELi0ELi0ELi0ELi0EEEEC2Ee
	.weak	_ZN7physics8quantity7details14_quantity_baseIKNS_4unit7details10_dim_spaceILi0ELi1ELi0ELi0ELi0ELi0ELi0EEEEC1Ee
	.set	_ZN7physics8quantity7details14_quantity_baseIKNS_4unit7details10_dim_spaceILi0ELi1ELi0ELi0ELi0ELi0ELi0EEEEC1Ee,_ZN7physics8quantity7details14_quantity_baseIKNS_4unit7details10_dim_spaceILi0ELi1ELi0ELi0ELi0ELi0ELi0EEEEC2Ee
	.section	.text._ZN7physics8quantity7details14_quantity_baseIKNS_4unit7details10_dim_spaceILi0ELi0ELi1ELi0ELi0ELi0ELi0EEEEC2Ee,"axG",@progbits,_ZN7physics8quantity7details14_quantity_baseIKNS_4unit7details10_dim_spaceILi0ELi0ELi1ELi0ELi0ELi0ELi0EEEEC5Ee,comdat
	.align 2
	.weak	_ZN7physics8quantity7details14_quantity_baseIKNS_4unit7details10_dim_spaceILi0ELi0ELi1ELi0ELi0ELi0ELi0EEEEC2Ee
	.type	_ZN7physics8quantity7details14_quantity_baseIKNS_4unit7details10_dim_spaceILi0ELi0ELi1ELi0ELi0ELi0ELi0EEEEC2Ee, @function
_ZN7physics8quantity7details14_quantity_baseIKNS_4unit7details10_dim_spaceILi0ELi0ELi1ELi0ELi0ELi0ELi0EEEEC2Ee:
.LFB2523:
	.loc 4 25 22
	.cfi_startproc
	pushq	%rbp	#
	.cfi_def_cfa_offset 16
	.cfi_offset 6, -16
	movq	%rsp, %rbp	#,
	.cfi_def_cfa_register 6
	movq	%rdi, -8(%rbp)	# this, this
.LBB4:
# include/Quantity/QuantityBase.hpp:25:             explicit _quantity_base(long double val) : value{val} {}
	.loc 4 25 56
	movq	-8(%rbp), %rax	# this, tmp82
	fldt	16(%rbp)	# val
	fstpt	(%rax)	# this_2(D)->value
.LBE4:
# include/Quantity/QuantityBase.hpp:25:             explicit _quantity_base(long double val) : value{val} {}
	.loc 4 25 68
	nop	
	popq	%rbp	#
	.cfi_def_cfa 7, 8
	ret	
	.cfi_endproc
.LFE2523:
	.size	_ZN7physics8quantity7details14_quantity_baseIKNS_4unit7details10_dim_spaceILi0ELi0ELi1ELi0ELi0ELi0ELi0EEEEC2Ee, .-_ZN7physics8quantity7details14_quantity_baseIKNS_4unit7details10_dim_spaceILi0ELi0ELi1ELi0ELi0ELi0ELi0EEEEC2Ee
	.weak	_ZN7physics8quantity7details14_quantity_baseIKNS_4unit7details10_dim_spaceILi0ELi0ELi1ELi0ELi0ELi0ELi0EEEEC1Ee
	.set	_ZN7physics8quantity7details14_quantity_baseIKNS_4unit7details10_dim_spaceILi0ELi0ELi1ELi0ELi0ELi0ELi0EEEEC1Ee,_ZN7physics8quantity7details14_quantity_baseIKNS_4unit7details10_dim_spaceILi0ELi0ELi1ELi0ELi0ELi0ELi0EEEEC2Ee
	.section	.text._ZN7physics8quantity7details14_quantity_baseIKNS_4unit7details10_dim_spaceILi0ELi0ELi0ELi1ELi0ELi0ELi0EEEEC2Ee,"axG",@progbits,_ZN7physics8quantity7details14_quantity_baseIKNS_4unit7details10_dim_spaceILi0ELi0ELi0ELi1ELi0ELi0ELi0EEEEC5Ee,comdat
	.align 2
	.weak	_ZN7physics8quantity7details14_quantity_baseIKNS_4unit7details10_dim_spaceILi0ELi0ELi0ELi1ELi0ELi0ELi0EEEEC2Ee
	.type	_ZN7physics8quantity7details14_quantity_baseIKNS_4unit7details10_dim_spaceILi0ELi0ELi0ELi1ELi0ELi0ELi0EEEEC2Ee, @function
_ZN7physics8quantity7details14_quantity_baseIKNS_4unit7details10_dim_spaceILi0ELi0ELi0ELi1ELi0ELi0ELi0EEEEC2Ee:
.LFB2526:
	.loc 4 25 22
	.cfi_startproc
	pushq	%rbp	#
	.cfi_def_cfa_offset 16
	.cfi_offset 6, -16
	movq	%rsp, %rbp	#,
	.cfi_def_cfa_register 6
	movq	%rdi, -8(%rbp)	# this, this
.LBB5:
# include/Quantity/QuantityBase.hpp:25:             explicit _quantity_base(long double val) : value{val} {}
	.loc 4 25 56
	movq	-8(%rbp), %rax	# this, tmp82
	fldt	16(%rbp)	# val
	fstpt	(%rax)	# this_2(D)->value
.LBE5:
# include/Quantity/QuantityBase.hpp:25:             explicit _quantity_base(long double val) : value{val} {}
	.loc 4 25 68
	nop	
	popq	%rbp	#
	.cfi_def_cfa 7, 8
	ret	
	.cfi_endproc
.LFE2526:
	.size	_ZN7physics8quantity7details14_quantity_baseIKNS_4unit7details10_dim_spaceILi0ELi0ELi0ELi1ELi0ELi0ELi0EEEEC2Ee, .-_ZN7physics8quantity7details14_quantity_baseIKNS_4unit7details10_dim_spaceILi0ELi0ELi0ELi1ELi0ELi0ELi0EEEEC2Ee
	.weak	_ZN7physics8quantity7details14_quantity_baseIKNS_4unit7details10_dim_spaceILi0ELi0ELi0ELi1ELi0ELi0ELi0EEEEC1Ee
	.set	_ZN7physics8quantity7details14_quantity_baseIKNS_4unit7details10_dim_spaceILi0ELi0ELi0ELi1ELi0ELi0ELi0EEEEC1Ee,_ZN7physics8quantity7details14_quantity_baseIKNS_4unit7details10_dim_spaceILi0ELi0ELi0ELi1ELi0ELi0ELi0EEEEC2Ee
	.section	.text._ZN7physics8quantity7details14_quantity_baseIKNS_4unit7details10_dim_spaceILi0ELi0ELi0ELi0ELi1ELi0ELi0EEEEC2Ee,"axG",@progbits,_ZN7physics8quantity7details14_quantity_baseIKNS_4unit7details10_dim_spaceILi0ELi0ELi0ELi0ELi1ELi0ELi0EEEEC5Ee,comdat
	.align 2
	.weak	_ZN7physics8quantity7details14_quantity_baseIKNS_4unit7details10_dim_spaceILi0ELi0ELi0ELi0ELi1ELi0ELi0EEEEC2Ee
	.type	_ZN7physics8quantity7details14_quantity_baseIKNS_4unit7details10_dim_spaceILi0ELi0ELi0ELi0ELi1ELi0ELi0EEEEC2Ee, @function
_ZN7physics8quantity7details14_quantity_baseIKNS_4unit7details10_dim_spaceILi0ELi0ELi0ELi0ELi1ELi0ELi0EEEEC2Ee:
.LFB2529:
	.loc 4 25 22
	.cfi_startproc
	pushq	%rbp	#
	.cfi_def_cfa_offset 16
	.cfi_offset 6, -16
	movq	%rsp, %rbp	#,
	.cfi_def_cfa_register 6
	movq	%rdi, -8(%rbp)	# this, this
.LBB6:
# include/Quantity/QuantityBase.hpp:25:             explicit _quantity_base(long double val) : value{val} {}
	.loc 4 25 56
	movq	-8(%rbp), %rax	# this, tmp82
	fldt	16(%rbp)	# val
	fstpt	(%rax)	# this_2(D)->value
.LBE6:
# include/Quantity/QuantityBase.hpp:25:             explicit _quantity_base(long double val) : value{val} {}
	.loc 4 25 68
	nop	
	popq	%rbp	#
	.cfi_def_cfa 7, 8
	ret	
	.cfi_endproc
.LFE2529:
	.size	_ZN7physics8quantity7details14_quantity_baseIKNS_4unit7details10_dim_spaceILi0ELi0ELi0ELi0ELi1ELi0ELi0EEEEC2Ee, .-_ZN7physics8quantity7details14_quantity_baseIKNS_4unit7details10_dim_spaceILi0ELi0ELi0ELi0ELi1ELi0ELi0EEEEC2Ee
	.weak	_ZN7physics8quantity7details14_quantity_baseIKNS_4unit7details10_dim_spaceILi0ELi0ELi0ELi0ELi1ELi0ELi0EEEEC1Ee
	.set	_ZN7physics8quantity7details14_quantity_baseIKNS_4unit7details10_dim_spaceILi0ELi0ELi0ELi0ELi1ELi0ELi0EEEEC1Ee,_ZN7physics8quantity7details14_quantity_baseIKNS_4unit7details10_dim_spaceILi0ELi0ELi0ELi0ELi1ELi0ELi0EEEEC2Ee
	.section	.text._ZN7physics8quantity7details14_quantity_baseIKNS_4unit7details10_dim_spaceILi0ELi0ELi0ELi0ELi0ELi1ELi0EEEEC2Ee,"axG",@progbits,_ZN7physics8quantity7details14_quantity_baseIKNS_4unit7details10_dim_spaceILi0ELi0ELi0ELi0ELi0ELi1ELi0EEEEC5Ee,comdat
	.align 2
	.weak	_ZN7physics8quantity7details14_quantity_baseIKNS_4unit7details10_dim_spaceILi0ELi0ELi0ELi0ELi0ELi1ELi0EEEEC2Ee
	.type	_ZN7physics8quantity7details14_quantity_baseIKNS_4unit7details10_dim_spaceILi0ELi0ELi0ELi0ELi0ELi1ELi0EEEEC2Ee, @function
_ZN7physics8quantity7details14_quantity_baseIKNS_4unit7details10_dim_spaceILi0ELi0ELi0ELi0ELi0ELi1ELi0EEEEC2Ee:
.LFB2532:
	.loc 4 25 22
	.cfi_startproc
	pushq	%rbp	#
	.cfi_def_cfa_offset 16
	.cfi_offset 6, -16
	movq	%rsp, %rbp	#,
	.cfi_def_cfa_register 6
	movq	%rdi, -8(%rbp)	# this, this
.LBB7:
# include/Quantity/QuantityBase.hpp:25:             explicit _quantity_base(long double val) : value{val} {}
	.loc 4 25 56
	movq	-8(%rbp), %rax	# this, tmp82
	fldt	16(%rbp)	# val
	fstpt	(%rax)	# this_2(D)->value
.LBE7:
# include/Quantity/QuantityBase.hpp:25:             explicit _quantity_base(long double val) : value{val} {}
	.loc 4 25 68
	nop	
	popq	%rbp	#
	.cfi_def_cfa 7, 8
	ret	
	.cfi_endproc
.LFE2532:
	.size	_ZN7physics8quantity7details14_quantity_baseIKNS_4unit7details10_dim_spaceILi0ELi0ELi0ELi0ELi0ELi1ELi0EEEEC2Ee, .-_ZN7physics8quantity7details14_quantity_baseIKNS_4unit7details10_dim_spaceILi0ELi0ELi0ELi0ELi0ELi1ELi0EEEEC2Ee
	.weak	_ZN7physics8quantity7details14_quantity_baseIKNS_4unit7details10_dim_spaceILi0ELi0ELi0ELi0ELi0ELi1ELi0EEEEC1Ee
	.set	_ZN7physics8quantity7details14_quantity_baseIKNS_4unit7details10_dim_spaceILi0ELi0ELi0ELi0ELi0ELi1ELi0EEEEC1Ee,_ZN7physics8quantity7details14_quantity_baseIKNS_4unit7details10_dim_spaceILi0ELi0ELi0ELi0ELi0ELi1ELi0EEEEC2Ee
	.section	.text._ZN7physics8quantity7details14_quantity_baseIKNS_4unit7details10_dim_spaceILi0ELi0ELi0ELi0ELi0ELi0ELi1EEEEC2Ee,"axG",@progbits,_ZN7physics8quantity7details14_quantity_baseIKNS_4unit7details10_dim_spaceILi0ELi0ELi0ELi0ELi0ELi0ELi1EEEEC5Ee,comdat
	.align 2
	.weak	_ZN7physics8quantity7details14_quantity_baseIKNS_4unit7details10_dim_spaceILi0ELi0ELi0ELi0ELi0ELi0ELi1EEEEC2Ee
	.type	_ZN7physics8quantity7details14_quantity_baseIKNS_4unit7details10_dim_spaceILi0ELi0ELi0ELi0ELi0ELi0ELi1EEEEC2Ee, @function
_ZN7physics8quantity7details14_quantity_baseIKNS_4unit7details10_dim_spaceILi0ELi0ELi0ELi0ELi0ELi0ELi1EEEEC2Ee:
.LFB2535:
	.loc 4 25 22
	.cfi_startproc
	pushq	%rbp	#
	.cfi_def_cfa_offset 16
	.cfi_offset 6, -16
	movq	%rsp, %rbp	#,
	.cfi_def_cfa_register 6
	movq	%rdi, -8(%rbp)	# this, this
.LBB8:
# include/Quantity/QuantityBase.hpp:25:             explicit _quantity_base(long double val) : value{val} {}
	.loc 4 25 56
	movq	-8(%rbp), %rax	# this, tmp82
	fldt	16(%rbp)	# val
	fstpt	(%rax)	# this_2(D)->value
.LBE8:
# include/Quantity/QuantityBase.hpp:25:             explicit _quantity_base(long double val) : value{val} {}
	.loc 4 25 68
	nop	
	popq	%rbp	#
	.cfi_def_cfa 7, 8
	ret	
	.cfi_endproc
.LFE2535:
	.size	_ZN7physics8quantity7details14_quantity_baseIKNS_4unit7details10_dim_spaceILi0ELi0ELi0ELi0ELi0ELi0ELi1EEEEC2Ee, .-_ZN7physics8quantity7details14_quantity_baseIKNS_4unit7details10_dim_spaceILi0ELi0ELi0ELi0ELi0ELi0ELi1EEEEC2Ee
	.weak	_ZN7physics8quantity7details14_quantity_baseIKNS_4unit7details10_dim_spaceILi0ELi0ELi0ELi0ELi0ELi0ELi1EEEEC1Ee
	.set	_ZN7physics8quantity7details14_quantity_baseIKNS_4unit7details10_dim_spaceILi0ELi0ELi0ELi0ELi0ELi0ELi1EEEEC1Ee,_ZN7physics8quantity7details14_quantity_baseIKNS_4unit7details10_dim_spaceILi0ELi0ELi0ELi0ELi0ELi0ELi1EEEEC2Ee
	.section	.text._ZN7physics8quantity7details14_quantity_baseIKNS_4unit7details10_dim_spaceILin2ELi1ELi1ELi0ELi0ELi0ELi0EEEEC2Ee,"axG",@progbits,_ZN7physics8quantity7details14_quantity_baseIKNS_4unit7details10_dim_spaceILin2ELi1ELi1ELi0ELi0ELi0ELi0EEEEC5Ee,comdat
	.align 2
	.weak	_ZN7physics8quantity7details14_quantity_baseIKNS_4unit7details10_dim_spaceILin2ELi1ELi1ELi0ELi0ELi0ELi0EEEEC2Ee
	.type	_ZN7physics8quantity7details14_quantity_baseIKNS_4unit7details10_dim_spaceILin2ELi1ELi1ELi0ELi0ELi0ELi0EEEEC2Ee, @function
_ZN7physics8quantity7details14_quantity_baseIKNS_4unit7details10_dim_spaceILin2ELi1ELi1ELi0ELi0ELi0ELi0EEEEC2Ee:
.LFB2538:
	.loc 4 25 22
	.cfi_startproc
	pushq	%rbp	#
	.cfi_def_cfa_offset 16
	.cfi_offset 6, -16
	movq	%rsp, %rbp	#,
	.cfi_def_cfa_register 6
	movq	%rdi, -8(%rbp)	# this, this
.LBB9:
# include/Quantity/QuantityBase.hpp:25:             explicit _quantity_base(long double val) : value{val} {}
	.loc 4 25 56
	movq	-8(%rbp), %rax	# this, tmp82
	fldt	16(%rbp)	# val
	fstpt	(%rax)	# this_2(D)->value
.LBE9:
# include/Quantity/QuantityBase.hpp:25:             explicit _quantity_base(long double val) : value{val} {}
	.loc 4 25 68
	nop	
	popq	%rbp	#
	.cfi_def_cfa 7, 8
	ret	
	.cfi_endproc
.LFE2538:
	.size	_ZN7physics8quantity7details14_quantity_baseIKNS_4unit7details10_dim_spaceILin2ELi1ELi1ELi0ELi0ELi0ELi0EEEEC2Ee, .-_ZN7physics8quantity7details14_quantity_baseIKNS_4unit7details10_dim_spaceILin2ELi1ELi1ELi0ELi0ELi0ELi0EEEEC2Ee
	.weak	_ZN7physics8quantity7details14_quantity_baseIKNS_4unit7details10_dim_spaceILin2ELi1ELi1ELi0ELi0ELi0ELi0EEEEC1Ee
	.set	_ZN7physics8quantity7details14_quantity_baseIKNS_4unit7details10_dim_spaceILin2ELi1ELi1ELi0ELi0ELi0ELi0EEEEC1Ee,_ZN7physics8quantity7details14_quantity_baseIKNS_4unit7details10_dim_spaceILin2ELi1ELi1ELi0ELi0ELi0ELi0EEEEC2Ee
	.section	.text._ZN7physics8quantity7details14_quantity_baseIKNS_4unit7details10_dim_spaceILin2ELi2ELi1ELi0ELi0ELi0ELi0EEEEC2Ee,"axG",@progbits,_ZN7physics8quantity7details14_quantity_baseIKNS_4unit7details10_dim_spaceILin2ELi2ELi1ELi0ELi0ELi0ELi0EEEEC5Ee,comdat
	.align 2
	.weak	_ZN7physics8quantity7details14_quantity_baseIKNS_4unit7details10_dim_spaceILin2ELi2ELi1ELi0ELi0ELi0ELi0EEEEC2Ee
	.type	_ZN7physics8quantity7details14_quantity_baseIKNS_4unit7details10_dim_spaceILin2ELi2ELi1ELi0ELi0ELi0ELi0EEEEC2Ee, @function
_ZN7physics8quantity7details14_quantity_baseIKNS_4unit7details10_dim_spaceILin2ELi2ELi1ELi0ELi0ELi0ELi0EEEEC2Ee:
.LFB2541:
	.loc 4 25 22
	.cfi_startproc
	pushq	%rbp	#
	.cfi_def_cfa_offset 16
	.cfi_offset 6, -16
	movq	%rsp, %rbp	#,
	.cfi_def_cfa_register 6
	movq	%rdi, -8(%rbp)	# this, this
.LBB10:
# include/Quantity/QuantityBase.hpp:25:             explicit _quantity_base(long double val) : value{val} {}
	.loc 4 25 56
	movq	-8(%rbp), %rax	# this, tmp82
	fldt	16(%rbp)	# val
	fstpt	(%rax)	# this_2(D)->value
.LBE10:
# include/Quantity/QuantityBase.hpp:25:             explicit _quantity_base(long double val) : value{val} {}
	.loc 4 25 68
	nop	
	popq	%rbp	#
	.cfi_def_cfa 7, 8
	ret	
	.cfi_endproc
.LFE2541:
	.size	_ZN7physics8quantity7details14_quantity_baseIKNS_4unit7details10_dim_spaceILin2ELi2ELi1ELi0ELi0ELi0ELi0EEEEC2Ee, .-_ZN7physics8quantity7details14_quantity_baseIKNS_4unit7details10_dim_spaceILin2ELi2ELi1ELi0ELi0ELi0ELi0EEEEC2Ee
	.weak	_ZN7physics8quantity7details14_quantity_baseIKNS_4unit7details10_dim_spaceILin2ELi2ELi1ELi0ELi0ELi0ELi0EEEEC1Ee
	.set	_ZN7physics8quantity7details14_quantity_baseIKNS_4unit7details10_dim_spaceILin2ELi2ELi1ELi0ELi0ELi0ELi0EEEEC1Ee,_ZN7physics8quantity7details14_quantity_baseIKNS_4unit7details10_dim_spaceILin2ELi2ELi1ELi0ELi0ELi0ELi0EEEEC2Ee
	.weak	_ZTIN7physics8quantity7details14_quantity_baseIKNS_4unit7details10_dim_spaceILin2ELi2ELi1ELi0ELi0ELi0ELi0EEEEE
	.section	.data.rel.ro._ZTIN7physics8quantity7details14_quantity_baseIKNS_4unit7details10_dim_spaceILin2ELi2ELi1ELi0ELi0ELi0ELi0EEEEE,"awG",@progbits,_ZTIN7physics8quantity7details14_quantity_baseIKNS_4unit7details10_dim_spaceILin2ELi2ELi1ELi0ELi0ELi0ELi0EEEEE,comdat
	.align 8
	.type	_ZTIN7physics8quantity7details14_quantity_baseIKNS_4unit7details10_dim_spaceILin2ELi2ELi1ELi0ELi0ELi0ELi0EEEEE, @object
	.size	_ZTIN7physics8quantity7details14_quantity_baseIKNS_4unit7details10_dim_spaceILin2ELi2ELi1ELi0ELi0ELi0ELi0EEEEE, 16
_ZTIN7physics8quantity7details14_quantity_baseIKNS_4unit7details10_dim_spaceILin2ELi2ELi1ELi0ELi0ELi0ELi0EEEEE:
# <anonymous>:
# <anonymous>:
	.quad	_ZTVN10__cxxabiv117__class_type_infoE+16
# <anonymous>:
	.quad	_ZTSN7physics8quantity7details14_quantity_baseIKNS_4unit7details10_dim_spaceILin2ELi2ELi1ELi0ELi0ELi0ELi0EEEEE
	.weak	_ZTSN7physics8quantity7details14_quantity_baseIKNS_4unit7details10_dim_spaceILin2ELi2ELi1ELi0ELi0ELi0ELi0EEEEE
	.section	.rodata._ZTSN7physics8quantity7details14_quantity_baseIKNS_4unit7details10_dim_spaceILin2ELi2ELi1ELi0ELi0ELi0ELi0EEEEE,"aG",@progbits,_ZTSN7physics8quantity7details14_quantity_baseIKNS_4unit7details10_dim_spaceILin2ELi2ELi1ELi0ELi0ELi0ELi0EEEEE,comdat
	.align 32
	.type	_ZTSN7physics8quantity7details14_quantity_baseIKNS_4unit7details10_dim_spaceILin2ELi2ELi1ELi0ELi0ELi0ELi0EEEEE, @object
	.size	_ZTSN7physics8quantity7details14_quantity_baseIKNS_4unit7details10_dim_spaceILin2ELi2ELi1ELi0ELi0ELi0ELi0EEEEE, 107
_ZTSN7physics8quantity7details14_quantity_baseIKNS_4unit7details10_dim_spaceILin2ELi2ELi1ELi0ELi0ELi0ELi0EEEEE:
	.string	"N7physics8quantity7details14_quantity_baseIKNS_4unit7details10_dim_spaceILin2ELi2ELi1ELi0ELi0ELi0ELi0EEEEE"
	.text
	.type	_Z41__static_initialization_and_destruction_0ii, @function
_Z41__static_initialization_and_destruction_0ii:
.LFB2819:
	.loc 3 19 1
	.cfi_startproc
	pushq	%rbp	#
	.cfi_def_cfa_offset 16
	.cfi_offset 6, -16
	movq	%rsp, %rbp	#,
	.cfi_def_cfa_register 6
	subq	$16, %rsp	#,
	movl	%edi, -4(%rbp)	# __initialize_p, __initialize_p
	movl	%esi, -8(%rbp)	# __priority, __priority
# Application.cpp:19: }
	.loc 3 19 1
	cmpl	$1, -4(%rbp)	#, __initialize_p
	jne	.L36	#,
# Application.cpp:19: }
	.loc 3 19 1 is_stmt 0 discriminator 1
	cmpl	$65535, -8(%rbp)	#, __priority
	jne	.L36	#,
# /usr/include/c++/12/iostream:74:   static ios_base::Init __ioinit;
	.file 5 "/usr/include/c++/12/iostream"
	.loc 5 74 25 is_stmt 1
	leaq	_ZStL8__ioinit(%rip), %rax	#, tmp82
	movq	%rax, %rdi	# tmp82,
	call	_ZNSt8ios_base4InitC1Ev@PLT	#
	leaq	__dso_handle(%rip), %rax	#, tmp83
	movq	%rax, %rdx	# tmp83,
	leaq	_ZStL8__ioinit(%rip), %rax	#, tmp84
	movq	%rax, %rsi	# tmp84,
	movq	_ZNSt8ios_base4InitD1Ev@GOTPCREL(%rip), %rax	#, tmp86
	movq	%rax, %rdi	# tmp85,
	call	__cxa_atexit@PLT	#
.L36:
# Application.cpp:19: }
	.loc 3 19 1
	nop	
	leave	
	.cfi_def_cfa 7, 8
	ret	
	.cfi_endproc
.LFE2819:
	.size	_Z41__static_initialization_and_destruction_0ii, .-_Z41__static_initialization_and_destruction_0ii
	.section	.rodata
	.type	_ZN7physics4unit6secondILin1EEE, @object
	.size	_ZN7physics4unit6secondILin1EEE, 1
_ZN7physics4unit6secondILin1EEE:
	.zero	1
	.type	_ZN7physics4unit6secondILin2EEE, @object
	.size	_ZN7physics4unit6secondILin2EEE, 1
_ZN7physics4unit6secondILin2EEE:
	.zero	1
	.type	_ZN7physics4unit5meterILi1EEE, @object
	.size	_ZN7physics4unit5meterILi1EEE, 1
_ZN7physics4unit5meterILi1EEE:
	.zero	1
	.type	_ZN7physics4unit8kilogramILi1EEE, @object
	.size	_ZN7physics4unit8kilogramILi1EEE, 1
_ZN7physics4unit8kilogramILi1EEE:
	.zero	1
	.type	_ZN7physics4unit5meterILin1EEE, @object
	.size	_ZN7physics4unit5meterILin1EEE, 1
_ZN7physics4unit5meterILin1EEE:
	.zero	1
	.type	_ZN7physics4unit5meterILi2EEE, @object
	.size	_ZN7physics4unit5meterILi2EEE, 1
_ZN7physics4unit5meterILi2EEE:
	.zero	1
	.type	_ZN7physics4unit6secondILin3EEE, @object
	.size	_ZN7physics4unit6secondILin3EEE, 1
_ZN7physics4unit6secondILin3EEE:
	.zero	1
	.type	_ZN7physics4unit6secondILi1EEE, @object
	.size	_ZN7physics4unit6secondILi1EEE, 1
_ZN7physics4unit6secondILi1EEE:
	.zero	1
	.type	_ZN7physics4unit6ampereILi1EEE, @object
	.size	_ZN7physics4unit6ampereILi1EEE, 1
_ZN7physics4unit6ampereILi1EEE:
	.zero	1
	.type	_ZN7physics4unit6ampereILin1EEE, @object
	.size	_ZN7physics4unit6ampereILin1EEE, 1
_ZN7physics4unit6ampereILin1EEE:
	.zero	1
	.type	_ZN7physics4unit6secondILi4EEE, @object
	.size	_ZN7physics4unit6secondILi4EEE, 1
_ZN7physics4unit6secondILi4EEE:
	.zero	1
	.type	_ZN7physics4unit5meterILin2EEE, @object
	.size	_ZN7physics4unit5meterILin2EEE, 1
_ZN7physics4unit5meterILin2EEE:
	.zero	1
	.type	_ZN7physics4unit8kilogramILin1EEE, @object
	.size	_ZN7physics4unit8kilogramILin1EEE, 1
_ZN7physics4unit8kilogramILin1EEE:
	.zero	1
	.type	_ZN7physics4unit6ampereILi2EEE, @object
	.size	_ZN7physics4unit6ampereILi2EEE, 1
_ZN7physics4unit6ampereILi2EEE:
	.zero	1
	.type	_ZN7physics4unit6ampereILin2EEE, @object
	.size	_ZN7physics4unit6ampereILin2EEE, 1
_ZN7physics4unit6ampereILin2EEE:
	.zero	1
	.type	_ZN7physics4unit6secondILi3EEE, @object
	.size	_ZN7physics4unit6secondILi3EEE, 1
_ZN7physics4unit6secondILi3EEE:
	.zero	1
	.type	_ZN7physics4unit6kelvinILi1EEE, @object
	.size	_ZN7physics4unit6kelvinILi1EEE, 1
_ZN7physics4unit6kelvinILi1EEE:
	.zero	1
	.type	_ZN7physics4unit4moleILi1EEE, @object
	.size	_ZN7physics4unit4moleILi1EEE, 1
_ZN7physics4unit4moleILi1EEE:
	.zero	1
	.type	_ZN7physics4unit7candelaILi1EEE, @object
	.size	_ZN7physics4unit7candelaILi1EEE, 1
_ZN7physics4unit7candelaILi1EEE:
	.zero	1
	.text
	.type	_GLOBAL__sub_I__Zli2_se, @function
_GLOBAL__sub_I__Zli2_se:
.LFB2820:
	.loc 3 19 1
	.cfi_startproc
	pushq	%rbp	#
	.cfi_def_cfa_offset 16
	.cfi_offset 6, -16
	movq	%rsp, %rbp	#,
	.cfi_def_cfa_register 6
# Application.cpp:19: }
	.loc 3 19 1
	movl	$65535, %esi	#,
	movl	$1, %edi	#,
	call	_Z41__static_initialization_and_destruction_0ii	#
	popq	%rbp	#
	.cfi_def_cfa 7, 8
	ret	
	.cfi_endproc
.LFE2820:
	.size	_GLOBAL__sub_I__Zli2_se, .-_GLOBAL__sub_I__Zli2_se
	.section	.init_array,"aw"
	.align 8
	.quad	_GLOBAL__sub_I__Zli2_se
	.section	.rodata
	.align 16
.LC1:
	.long	0
	.long	-1610612736
	.long	16386
	.long	0
	.text
.Letext0:
	.file 6 "<built-in>"
	.file 7 "/usr/lib/gcc/x86_64-linux-gnu/12/include/stddef.h"
	.file 8 "/usr/include/x86_64-linux-gnu/bits/types/wint_t.h"
	.file 9 "/usr/include/x86_64-linux-gnu/bits/types/__mbstate_t.h"
	.file 10 "/usr/include/x86_64-linux-gnu/bits/types/mbstate_t.h"
	.file 11 "/usr/include/x86_64-linux-gnu/bits/types/__FILE.h"
	.file 12 "/usr/include/x86_64-linux-gnu/bits/types/struct_FILE.h"
	.file 13 "/usr/include/x86_64-linux-gnu/bits/types/FILE.h"
	.file 14 "/usr/include/c++/12/cwchar"
	.file 15 "/usr/include/x86_64-linux-gnu/c++/12/bits/c++config.h"
	.file 16 "/usr/include/c++/12/bits/exception_ptr.h"
	.file 17 "/usr/include/c++/12/bits/char_traits.h"
	.file 18 "/usr/include/c++/12/cstdint"
	.file 19 "/usr/include/c++/12/clocale"
	.file 20 "/usr/include/c++/12/bits/stl_pair.h"
	.file 21 "/usr/include/c++/12/type_traits"
	.file 22 "/usr/include/c++/12/debug/debug.h"
	.file 23 "/usr/include/c++/12/cstdlib"
	.file 24 "/usr/include/c++/12/cstdio"
	.file 25 "/usr/include/c++/12/bits/ios_base.h"
	.file 26 "/usr/include/c++/12/cwctype"
	.file 27 "/usr/include/c++/12/ostream"
	.file 28 "/usr/include/c++/12/iosfwd"
	.file 29 "/usr/include/c++/12/cmath"
	.file 30 "/usr/include/wchar.h"
	.file 31 "/usr/include/x86_64-linux-gnu/bits/types/struct_tm.h"
	.file 32 "/usr/include/c++/12/bits/predefined_ops.h"
	.file 33 "/usr/include/x86_64-linux-gnu/bits/types.h"
	.file 34 "/usr/include/x86_64-linux-gnu/bits/stdint-intn.h"
	.file 35 "/usr/include/x86_64-linux-gnu/bits/stdint-uintn.h"
	.file 36 "/usr/include/stdint.h"
	.file 37 "/usr/include/locale.h"
	.file 38 "/usr/include/stdlib.h"
	.file 39 "/usr/include/x86_64-linux-gnu/bits/types/__fpos_t.h"
	.file 40 "/usr/include/stdio.h"
	.file 41 "/usr/include/x86_64-linux-gnu/bits/wctype-wchar.h"
	.file 42 "/usr/include/wctype.h"
	.file 43 "/usr/include/math.h"
	.file 44 "include/Quantity/../Unit/DimSpace.hpp"
	.file 45 "include/Quantity/../Unit/UnitBase.hpp"
	.file 46 "include/Quantity/../Unit/UnitDerived.hpp"
	.file 47 "include/Quantity/QuantityDefs.hpp"
	.file 48 "/usr/include/c++/12/bits/stl_iterator_base_types.h"
	.file 49 "/usr/include/c++/12/system_error"
	.section	.note.GNU-stack,"",@progbits
